target datalayout = "e-m:e-p270:32:32-p271:32:32-p272:64:64-i64:64-i128:128-f80:128-n8:16:32:64-S128"
target triple = "x86_64-pc-linux-gnu"

%class.Klass = type <{ %class.Metadata, i32, i32, i32, i32, ptr, ptr, ptr, [8 x ptr], %class.OopHandle, ptr, ptr, ptr, ptr, ptr, i32, %class.AccessFlags, i64, i64, i8, i8, i16, i16, [2 x i8], i32, [4 x i8] }>
%class.Metadata = type { ptr }
%class.OopHandle = type { ptr }
%class.AccessFlags = type { i32 }
%class.CompiledICData = type <{ ptr, i64, ptr, ptr, i8, [7 x i8] }>
%"struct.Atomic::StoreImpl" = type { i8 }
%"struct.Atomic::StoreImpl.6" = type { i8 }
%"struct.Atomic::PlatformStore" = type { i8 }

@UseCompressedClassPointers = external global i8, align 1
@_ZN23CompressedKlassPointers5_baseE = external global ptr, align 8
@_ZN23CompressedKlassPointers6_shiftE = external global i32, align 4

; Function Attrs: mustprogress nounwind uwtable
define linkonce_odr hidden noundef ptr @_ZN23CompressedKlassPointers31decode_not_null_without_assertsEjPhi(i32 noundef %0, ptr noundef %1, i32 noundef %2) #1 comdat align 2 {
  %4 = alloca i32, align 4
  %5 = alloca ptr, align 8
  %6 = alloca i32, align 4
  store i32 %0, ptr %4, align 4
  store ptr %1, ptr %5, align 8
  store i32 %2, ptr %6, align 4
  %7 = load ptr, ptr %5, align 8
  %8 = ptrtoint ptr %7 to i64
  %9 = load i32, ptr %4, align 4
  %10 = zext i32 %9 to i64
  %11 = load i32, ptr %6, align 4
  %12 = zext i32 %11 to i64
  %13 = shl i64 %10, %12
  %14 = add i64 %8, %13
  %15 = inttoptr i64 %14 to ptr
  ret ptr %15
}

; Function Attrs: mustprogress nounwind uwtable
define linkonce_odr hidden void @_ZNK6Atomic13PlatformStoreILm8EEclIP6MethodEEvPVT_S5_(ptr noundef nonnull align 1 dereferenceable(1) %0, ptr noundef %1, ptr noundef %2) #1 comdat align 2 {
  %4 = alloca ptr, align 8
  %5 = alloca ptr, align 8
  %6 = alloca ptr, align 8
  store ptr %0, ptr %4, align 8
  store ptr %1, ptr %5, align 8
  store ptr %2, ptr %6, align 8
  %7 = load ptr, ptr %6, align 8
  %8 = load ptr, ptr %5, align 8
  store volatile ptr %7, ptr %8, align 8
  ret void
}

; Function Attrs: mustprogress nounwind uwtable
define linkonce_odr hidden void @_ZNK6Atomic13PlatformStoreILm8EEclImEEvPVT_S3_(ptr noundef nonnull align 1 dereferenceable(1) %0, ptr noundef %1, i64 noundef %2) #1 comdat align 2 {
  %4 = alloca ptr, align 8
  %5 = alloca ptr, align 8
  %6 = alloca i64, align 8
  store ptr %0, ptr %4, align 8
  store ptr %1, ptr %5, align 8
  store i64 %2, ptr %6, align 8
  %7 = load i64, ptr %6, align 8
  %8 = load ptr, ptr %5, align 8
  store volatile i64 %7, ptr %8, align 8
  ret void
}

; Function Attrs: mustprogress nounwind uwtable
define linkonce_odr hidden noundef ptr @_ZN23CompressedKlassPointers15decode_not_nullEjPhi(i32 noundef %0, ptr noundef %1, i32 noundef %2) #1 comdat align 2 {
  %4 = alloca i32, align 4
  %5 = alloca ptr, align 8
  %6 = alloca i32, align 4
  %7 = alloca ptr, align 8
  store i32 %0, ptr %4, align 4
  store ptr %1, ptr %5, align 8
  store i32 %2, ptr %6, align 4
  %8 = load i32, ptr %4, align 4
  %9 = load ptr, ptr %5, align 8
  %10 = load i32, ptr %6, align 4
  %11 = call noundef ptr @_ZN23CompressedKlassPointers31decode_not_null_without_assertsEjPhi(i32 noundef %8, ptr noundef %9, i32 noundef %10)
  store ptr %11, ptr %7, align 8
  %12 = load ptr, ptr %7, align 8
  ret ptr %12
}

; Function Attrs: mustprogress nounwind uwtable
define linkonce_odr hidden noundef i32 @_ZN23CompressedKlassPointers5shiftEv() #1 comdat align 2 {
  %1 = load i32, ptr @_ZN23CompressedKlassPointers6_shiftE, align 4
  ret i32 %1
}

; Function Attrs: mustprogress nounwind uwtable
define linkonce_odr hidden noundef ptr @_ZN23CompressedKlassPointers4baseEv() #1 comdat align 2 {
  %1 = load ptr, ptr @_ZN23CompressedKlassPointers5_baseE, align 8
  ret ptr %1
}

; Function Attrs: mustprogress nounwind uwtable
define linkonce_odr hidden void @_ZNK6Atomic9StoreImplIP6MethodS2_NS_13PlatformStoreILm8EEEvEclEPVS2_S2_(ptr noundef nonnull align 1 dereferenceable(1) %0, ptr noundef %1, ptr noundef %2) #1 comdat align 2 {
  %4 = alloca ptr, align 8
  %5 = alloca ptr, align 8
  %6 = alloca ptr, align 8
  %7 = alloca ptr, align 8
  %8 = alloca %"struct.Atomic::PlatformStore", align 1
  store ptr %0, ptr %4, align 8
  store ptr %1, ptr %5, align 8
  store ptr %2, ptr %6, align 8
  %9 = load ptr, ptr %6, align 8
  store ptr %9, ptr %7, align 8
  %10 = load ptr, ptr %5, align 8
  %11 = load ptr, ptr %7, align 8
  call void @_ZNK6Atomic13PlatformStoreILm8EEclIP6MethodEEvPVT_S5_(ptr noundef nonnull align 1 dereferenceable(1) %8, ptr noundef %10, ptr noundef %11)
  ret void
}

; Function Attrs: mustprogress nounwind uwtable
define linkonce_odr hidden void @_ZNK6Atomic9StoreImplImmNS_13PlatformStoreILm8EEEvEclEPVmm(ptr noundef nonnull align 1 dereferenceable(1) %0, ptr noundef %1, i64 noundef %2) #1 comdat align 2 {
  %4 = alloca ptr, align 8
  %5 = alloca ptr, align 8
  %6 = alloca i64, align 8
  %7 = alloca %"struct.Atomic::PlatformStore", align 1
  store ptr %0, ptr %4, align 8
  store ptr %1, ptr %5, align 8
  store i64 %2, ptr %6, align 8
  %8 = load ptr, ptr %5, align 8
  %9 = load i64, ptr %6, align 8
  call void @_ZNK6Atomic13PlatformStoreILm8EEclImEEvPVT_S3_(ptr noundef nonnull align 1 dereferenceable(1) %7, ptr noundef %8, i64 noundef %9)
  ret void
}

; Function Attrs: mustprogress nounwind uwtable
define linkonce_odr hidden noundef ptr @_ZNK5Klass17class_loader_dataEv(ptr noundef nonnull align 8 dereferenceable(196) %0) #1 comdat align 2 {
  %2 = alloca ptr, align 8
  store ptr %0, ptr %2, align 8
  %3 = load ptr, ptr %2, align 8
  %4 = getelementptr inbounds %class.Klass, ptr %3, i32 0, i32 14
  %5 = load ptr, ptr %4, align 8
  ret ptr %5
}

; Function Attrs: mustprogress nounwind uwtable
define linkonce_odr hidden noundef ptr @_ZN23CompressedKlassPointers15decode_not_nullEj(i32 noundef %0) #1 comdat align 2 {
  %2 = alloca i32, align 4
  store i32 %0, ptr %2, align 4
  %3 = load i32, ptr %2, align 4
  %4 = call noundef ptr @_ZN23CompressedKlassPointers4baseEv()
  %5 = call noundef i32 @_ZN23CompressedKlassPointers5shiftEv()
  %6 = call noundef ptr @_ZN23CompressedKlassPointers15decode_not_nullEjPhi(i32 noundef %3, ptr noundef %4, i32 noundef %5)
  ret ptr %6
}

; Function Attrs: mustprogress nounwind uwtable
define linkonce_odr hidden void @_ZN6Atomic5storeIP6MethodS2_EEvPVT_T0_(ptr noundef %0, ptr noundef %1) #1 comdat align 2 {
  %3 = alloca ptr, align 8
  %4 = alloca ptr, align 8
  %5 = alloca %"struct.Atomic::StoreImpl.6", align 1
  store ptr %0, ptr %3, align 8
  store ptr %1, ptr %4, align 8
  %6 = load ptr, ptr %3, align 8
  %7 = load ptr, ptr %4, align 8
  call void @_ZNK6Atomic9StoreImplIP6MethodS2_NS_13PlatformStoreILm8EEEvEclEPVS2_S2_(ptr noundef nonnull align 1 dereferenceable(1) %5, ptr noundef %6, ptr noundef %7)
  ret void
}

; Function Attrs: mustprogress nounwind uwtable
define linkonce_odr hidden void @_ZN6Atomic5storeImmEEvPVT_T0_(ptr noundef %0, i64 noundef %1) #1 comdat align 2 {
  %3 = alloca ptr, align 8
  %4 = alloca i64, align 8
  %5 = alloca %"struct.Atomic::StoreImpl", align 1
  store ptr %0, ptr %3, align 8
  store i64 %1, ptr %4, align 8
  %6 = load ptr, ptr %3, align 8
  %7 = load i64, ptr %4, align 8
  call void @_ZNK6Atomic9StoreImplImmNS_13PlatformStoreILm8EEEvEclEPVmm(ptr noundef nonnull align 1 dereferenceable(1) %5, ptr noundef %6, i64 noundef %7)
  ret void
}

; Function Attrs: mustprogress nounwind uwtable
define linkonce_odr hidden noundef zeroext i1 @_ZNK5Klass15is_loader_aliveEv(ptr noundef nonnull align 8 dereferenceable(196) %0) #1 comdat align 2 {
  %2 = alloca ptr, align 8
  store ptr %0, ptr %2, align 8
  %3 = load ptr, ptr %2, align 8
  %4 = call noundef ptr @_ZNK5Klass17class_loader_dataEv(ptr noundef nonnull align 8 dereferenceable(196) %3)
  %5 = call noundef zeroext i1 @_ZNK15ClassLoaderData8is_aliveEv(ptr noundef nonnull align 8 dereferenceable(160) %4)
  ret i1 %5
}

; Function Attrs: mustprogress nounwind uwtable
define hidden noundef ptr @_ZNK14CompiledICData16speculated_klassEv(ptr noundef nonnull align 8 dereferenceable(33) %0) #1 align 2 {
  %2 = alloca ptr, align 8
  %3 = alloca ptr, align 8
  store ptr %0, ptr %3, align 8
  %4 = load ptr, ptr %3, align 8
  %5 = call noundef zeroext i1 @_ZNK14CompiledICData28is_speculated_klass_unloadedEv(ptr noundef nonnull align 8 dereferenceable(33) %4)
  br i1 %5, label %6, label %7

6:                                                ; preds = %1
  store ptr null, ptr %2, align 8
  br label %19

7:                                                ; preds = %1
  %8 = load i8, ptr @UseCompressedClassPointers, align 1
  %9 = trunc i8 %8 to i1
  br i1 %9, label %10, label %15

10:                                               ; preds = %7
  %11 = getelementptr inbounds %class.CompiledICData, ptr %4, i32 0, i32 1
  %12 = load volatile i64, ptr %11, align 8
  %13 = trunc i64 %12 to i32
  %14 = call noundef ptr @_ZN23CompressedKlassPointers15decode_not_nullEj(i32 noundef %13)
  store ptr %14, ptr %2, align 8
  br label %19

15:                                               ; preds = %7
  %16 = getelementptr inbounds %class.CompiledICData, ptr %4, i32 0, i32 1
  %17 = load volatile i64, ptr %16, align 8
  %18 = inttoptr i64 %17 to ptr
  store ptr %18, ptr %2, align 8
  br label %19

19:                                               ; preds = %15, %10, %6
  %20 = load ptr, ptr %2, align 8
  ret ptr %20
}

; Function Attrs: mustprogress nounwind uwtable
define hidden noundef zeroext i1 @_ZNK14CompiledICData28is_speculated_klass_unloadedEv(ptr noundef nonnull align 8 dereferenceable(33) %0) #1 align 2 {
  %2 = alloca ptr, align 8
  store ptr %0, ptr %2, align 8
  %3 = load ptr, ptr %2, align 8
  %4 = call noundef zeroext i1 @_ZNK14CompiledICData14is_initializedEv(ptr noundef nonnull align 8 dereferenceable(33) %3)
  br i1 %4, label %5, label %9

5:                                                ; preds = %1
  %6 = getelementptr inbounds %class.CompiledICData, ptr %3, i32 0, i32 1
  %7 = load volatile i64, ptr %6, align 8
  %8 = icmp eq i64 %7, 0
  br label %9

9:                                                ; preds = %5, %1
  %10 = phi i1 [ false, %1 ], [ %8, %5 ]
  ret i1 %10
}

; Function Attrs: mustprogress nounwind uwtable
define linkonce_odr hidden noundef zeroext i1 @_ZNK14CompiledICData14is_initializedEv(ptr noundef nonnull align 8 dereferenceable(33) %0) #1 comdat align 2 {
  %2 = alloca ptr, align 8
  store ptr %0, ptr %2, align 8
  %3 = load ptr, ptr %2, align 8
  %4 = getelementptr inbounds %class.CompiledICData, ptr %3, i32 0, i32 4
  %5 = load i8, ptr %4, align 8
  %6 = trunc i8 %5 to i1
  ret i1 %6
}

; Function Attrs: mustprogress nounwind uwtable
define hidden void @_ZN14CompiledICData14clean_metadataEv(ptr noundef nonnull align 8 dereferenceable(33) %0) #1 align 2 {
  %2 = alloca ptr, align 8
  store ptr %0, ptr %2, align 8
  %3 = load ptr, ptr %2, align 8
  %4 = call noundef zeroext i1 @_ZNK14CompiledICData14is_initializedEv(ptr noundef nonnull align 8 dereferenceable(33) %3)
  br i1 %4, label %5, label %7

5:                                                ; preds = %1
  %6 = call noundef zeroext i1 @_ZNK14CompiledICData28is_speculated_klass_unloadedEv(ptr noundef nonnull align 8 dereferenceable(33) %3)
  br i1 %6, label %7, label %8

7:                                                ; preds = %5, %1
  br label %14

8:                                                ; preds = %5
  %9 = call noundef ptr @_ZNK14CompiledICData16speculated_klassEv(ptr noundef nonnull align 8 dereferenceable(33) %3)
  %10 = call noundef zeroext i1 @_ZNK5Klass15is_loader_aliveEv(ptr noundef nonnull align 8 dereferenceable(196) %9)
  br i1 %10, label %14, label %11

11:                                               ; preds = %8
  %12 = getelementptr inbounds %class.CompiledICData, ptr %3, i32 0, i32 1
  call void @_ZN6Atomic5storeImmEEvPVT_T0_(ptr noundef %12, i64 noundef 0)
  %13 = getelementptr inbounds %class.CompiledICData, ptr %3, i32 0, i32 0
  call void @_ZN6Atomic5storeIP6MethodS2_EEvPVT_T0_(ptr noundef %13, ptr noundef null)
  br label %14

14:                                               ; preds = %11, %8, %7
  ret void
}