; Function Attrs: mustprogress nounwind uwtable
define hidden void @_ZN14CompiledICData14clean_metadataEv(ptr noundef nonnull align 8 dereferenceable(33) %0) local_unnamed_addr #0 align 2 {
  %2 = getelementptr inbounds i8, ptr %0, i64 32
  %3 = load i8, ptr %2, align 8
  %4 = trunc i8 %3 to i1
  br i1 %4, label %_ZNK14CompiledICData28is_speculated_klass_unloadedEv.exit, label %25

_ZNK14CompiledICData28is_speculated_klass_unloadedEv.exit: ; preds = %1
  %5 = getelementptr inbounds i8, ptr %0, i64 8
  %6 = load volatile i64, ptr %5, align 8
  %7 = icmp eq i64 %6, 0
  br i1 %7, label %25, label %_ZNK14CompiledICData28is_speculated_klass_unloadedEv.exit.i

_ZNK14CompiledICData28is_speculated_klass_unloadedEv.exit.i: ; preds = %_ZNK14CompiledICData28is_speculated_klass_unloadedEv.exit
  %8 = load volatile i64, ptr %5, align 8
  %9 = icmp ne i64 %8, 0
  tail call void @llvm.assume(i1 %9)
  %10 = load i8, ptr @UseCompressedClassPointers, align 1
  %11 = trunc i8 %10 to i1
  %12 = load volatile i64, ptr %5, align 8
  br i1 %11, label %13, label %_ZNK14CompiledICData16speculated_klassEv.exit

13:                                               ; preds = %_ZNK14CompiledICData28is_speculated_klass_unloadedEv.exit.i
  %14 = load ptr, ptr @_ZN23CompressedKlassPointers5_baseE, align 8
  %15 = load i32, ptr @_ZN23CompressedKlassPointers6_shiftE, align 4
  %16 = ptrtoint ptr %14 to i64
  %17 = and i64 %12, 4294967295
  %18 = zext nneg i32 %15 to i64
  %19 = shl i64 %17, %18
  %20 = add i64 %19, %16
  br label %_ZNK14CompiledICData16speculated_klassEv.exit

_ZNK14CompiledICData16speculated_klassEv.exit:    ; preds = %_ZNK14CompiledICData28is_speculated_klass_unloadedEv.exit.i, %13
  %.0.i.in = phi i64 [ %20, %13 ], [ %12, %_ZNK14CompiledICData28is_speculated_klass_unloadedEv.exit.i ]
  %.0.i = inttoptr i64 %.0.i.in to ptr
  %21 = getelementptr inbounds i8, ptr %.0.i, i64 152
  %22 = load ptr, ptr %21, align 8
  %23 = tail call noundef zeroext i1 @_ZNK15ClassLoaderData8is_aliveEv(ptr noundef nonnull align 8 dereferenceable(160) %22) #14
  br i1 %23, label %25, label %24

24:                                               ; preds = %_ZNK14CompiledICData16speculated_klassEv.exit
  store volatile i64 0, ptr %5, align 8
  store volatile ptr null, ptr %0, align 8
  br label %25

25:                                               ; preds = %1, %_ZNK14CompiledICData28is_speculated_klass_unloadedEv.exit, %24, %_ZNK14CompiledICData16speculated_klassEv.exit
  ret void
}